; Function Attrs: nounwind uwtable
define dso_local ptr @_PyObject_CallMethod_SizeT(ptr noundef %0, ptr noundef %1, ptr noundef %2, ...) local_unnamed_addr #0 {
  %4 = alloca [1 x %struct.__va_list_tag], align 16
  %5 = tail call align 8 ptr @llvm.threadlocal.address.p0(ptr align 8 @_Py_tss_tstate)
  %6 = load ptr, ptr %5, align 8, !tbaa !25
  %7 = icmp eq ptr %0, null
  %8 = icmp eq ptr %1, null
  %or.cond = or i1 %7, %8
  br i1 %or.cond, label %9, label %14

9:                                                ; preds = %3
  %10 = getelementptr i8, ptr %6, i64 112
  %.val.i = load ptr, ptr %10, align 8, !tbaa !4
  %11 = icmp eq ptr %.val.i, null
  br i1 %11, label %_PyErr_Occurred.exit.thread.i, label %_PyErr_Occurred.exit.i

_PyErr_Occurred.exit.i:                           ; preds = %9
  %12 = getelementptr i8, ptr %.val.i, i64 8
  %.val.i.i = load ptr, ptr %12, align 8, !tbaa !20
  %.not.i16 = icmp eq ptr %.val.i.i, null
  br i1 %.not.i16, label %_PyErr_Occurred.exit.thread.i, label %null_error.exit

_PyErr_Occurred.exit.thread.i:                    ; preds = %_PyErr_Occurred.exit.i, %9
  %13 = load ptr, ptr @PyExc_SystemError, align 8, !tbaa !23
  tail call void @_PyErr_SetString(ptr noundef nonnull %6, ptr noundef %13, ptr noundef nonnull @.str.13) #10
  br label %null_error.exit

14:                                               ; preds = %3
  %15 = tail call ptr @PyObject_GetAttrString(ptr noundef nonnull %0, ptr noundef nonnull %1) #10
  %16 = icmp eq ptr %15, null
  br i1 %16, label %null_error.exit, label %17

17:                                               ; preds = %14
  call void @llvm.lifetime.start.p0(i64 24, ptr nonnull %4) #10
  call void @llvm.va_start.p0(ptr nonnull %4)
  %18 = call i32 @PyCallable_Check(ptr noundef nonnull %15) #10
  %.not.i17 = icmp eq i32 %18, 0
  br i1 %.not.i17, label %19, label %25

19:                                               ; preds = %17
  %20 = load ptr, ptr @PyExc_TypeError, align 8, !tbaa !23
  %21 = getelementptr i8, ptr %15, i64 8
  %.val.i18 = load ptr, ptr %21, align 8, !tbaa !20
  %22 = getelementptr inbounds nuw i8, ptr %.val.i18, i64 24
  %23 = load ptr, ptr %22, align 8, !tbaa !26
  %24 = call ptr (ptr, ptr, ptr, ...) @_PyErr_Format(ptr noundef %6, ptr noundef %20, ptr noundef nonnull @.str.14, ptr noundef %23) #10
  br label %callmethod.exit

25:                                               ; preds = %17
  %26 = call fastcc ptr @_PyObject_CallFunctionVa(ptr noundef %6, ptr noundef nonnull %15, ptr noundef %2, ptr noundef nonnull %4)
  br label %callmethod.exit

callmethod.exit:                                  ; preds = %19, %25
  %.0.i = phi ptr [ %26, %25 ], [ null, %19 ]
  call void @llvm.va_end.p0(ptr nonnull %4)
  %27 = load i32, ptr %15, align 8, !tbaa !24
  %.not.i = icmp sgt i32 %27, -1
  br i1 %.not.i, label %28, label %Py_DECREF.exit

28:                                               ; preds = %callmethod.exit
  %29 = add nsw i32 %27, -1
  store i32 %29, ptr %15, align 8, !tbaa !24
  %30 = icmp eq i32 %29, 0
  br i1 %30, label %31, label %Py_DECREF.exit

31:                                               ; preds = %28
  call void @_Py_Dealloc(ptr noundef nonnull %15) #10
  br label %Py_DECREF.exit

Py_DECREF.exit:                                   ; preds = %callmethod.exit, %28, %31
  call void @llvm.lifetime.end.p0(i64 24, ptr nonnull %4) #10
  br label %null_error.exit

null_error.exit:                                  ; preds = %_PyErr_Occurred.exit.thread.i, %_PyErr_Occurred.exit.i, %Py_DECREF.exit, %14
  %.0 = phi ptr [ %.0.i, %Py_DECREF.exit ], [ null, %14 ], [ null, %_PyErr_Occurred.exit.i ], [ null, %_PyErr_Occurred.exit.thread.i ]
  ret ptr %.0
}